target datalayout = "e-m:e-p270:32:32-p271:32:32-p272:64:64-i64:64-i128:128-f80:128-n8:16:32:64-S128"
target triple = "x86_64-unknown-linux-gnu"

%"class.QuantLib::HestonExpansion" = type { ptr }
%"class.QuantLib::LPP3HestonExpansion" = type { %"class.QuantLib::HestonExpansion", [4 x double], double, double, double, double }

@_ZTVN8QuantLib19LPP3HestonExpansionE = unnamed_addr constant { [5 x ptr] } { [5 x ptr] [ptr null, ptr @_ZTIN8QuantLib19LPP3HestonExpansionE, ptr @_ZN8QuantLib15HestonExpansionD2Ev, ptr @_ZN8QuantLib19LPP3HestonExpansionD0Ev, ptr @_ZNK8QuantLib19LPP3HestonExpansion17impliedVolatilityEdd] }, align 8
@_ZTVN8QuantLib15HestonExpansionE = linkonce_odr unnamed_addr constant { [5 x ptr] } { [5 x ptr] [ptr null, ptr @_ZTIN8QuantLib15HestonExpansionE, ptr @_ZN8QuantLib15HestonExpansionD2Ev, ptr @_ZN8QuantLib15HestonExpansionD0Ev, ptr @__cxa_pure_virtual] }, comdat, align 8

; Function Attrs: mustprogress nounwind uwtable
define linkonce_odr void @_ZN8QuantLib15HestonExpansionD2Ev(ptr noundef nonnull align 8 dereferenceable(8) %this) unnamed_addr #1 comdat align 2 {
entry:
  %this.addr = alloca ptr, align 8
  store ptr %this, ptr %this.addr, align 8, !tbaa !3
  ret void
}

; Function Attrs: inlinehint mustprogress nounwind uwtable
define linkonce_odr void @_ZN8QuantLib15HestonExpansionC2Ev(ptr noundef nonnull align 8 dereferenceable(8) %this) unnamed_addr #5 comdat align 2 {
entry:
  %this.addr = alloca ptr, align 8
  store ptr %this, ptr %this.addr, align 8, !tbaa !3
  %this1 = load ptr, ptr %this.addr, align 8
  store ptr getelementptr inbounds inrange(-16, 24) ({ [5 x ptr] }, ptr @_ZTVN8QuantLib15HestonExpansionE, i32 0, i32 0, i32 2), ptr %this1, align 8, !tbaa !12
  ret void
}

; Function Attrs: mustprogress uwtable
define void @_ZN8QuantLib19LPP3HestonExpansionC2Edddddd(ptr noundef nonnull align 8 dereferenceable(72) %this, double noundef %kappa, double noundef %theta, double noundef %sigma, double noundef %v0, double noundef %rho, double noundef %term) unnamed_addr #2 align 2 personality ptr @__gxx_personality_v0 {
entry:
  %this.addr = alloca ptr, align 8
  %kappa.addr = alloca double, align 8
  %theta.addr = alloca double, align 8
  %sigma.addr = alloca double, align 8
  %v0.addr = alloca double, align 8
  %rho.addr = alloca double, align 8
  %term.addr = alloca double, align 8
  %exn.slot = alloca ptr, align 8
  %ehselector.slot = alloca i32, align 4
  store ptr %this, ptr %this.addr, align 8, !tbaa !3
  store double %kappa, ptr %kappa.addr, align 8, !tbaa !53
  store double %theta, ptr %theta.addr, align 8, !tbaa !53
  store double %sigma, ptr %sigma.addr, align 8, !tbaa !53
  store double %v0, ptr %v0.addr, align 8, !tbaa !53
  store double %rho, ptr %rho.addr, align 8, !tbaa !53
  store double %term, ptr %term.addr, align 8, !tbaa !53
  %this1 = load ptr, ptr %this.addr, align 8
  call void @_ZN8QuantLib15HestonExpansionC2Ev(ptr noundef nonnull align 8 dereferenceable(8) %this1) #13
  store ptr getelementptr inbounds inrange(-16, 24) ({ [5 x ptr] }, ptr @_ZTVN8QuantLib19LPP3HestonExpansionE, i32 0, i32 0, i32 2), ptr %this1, align 8, !tbaa !12
  %0 = load double, ptr %kappa.addr, align 8, !tbaa !53
  %1 = load double, ptr %term.addr, align 8, !tbaa !53
  %mul = fmul double %0, %1
  %call = call double @exp(double noundef %mul) #13, !tbaa !54
  %ekt = getelementptr inbounds nuw %"class.QuantLib::LPP3HestonExpansion", ptr %this1, i32 0, i32 2
  store double %call, ptr %ekt, align 8, !tbaa !90
  %ekt2 = getelementptr inbounds nuw %"class.QuantLib::LPP3HestonExpansion", ptr %this1, i32 0, i32 2
  %2 = load double, ptr %ekt2, align 8, !tbaa !90
  %ekt3 = getelementptr inbounds nuw %"class.QuantLib::LPP3HestonExpansion", ptr %this1, i32 0, i32 2
  %3 = load double, ptr %ekt3, align 8, !tbaa !90
  %mul4 = fmul double %2, %3
  %e2kt = getelementptr inbounds nuw %"class.QuantLib::LPP3HestonExpansion", ptr %this1, i32 0, i32 3
  store double %mul4, ptr %e2kt, align 8, !tbaa !92
  %e2kt5 = getelementptr inbounds nuw %"class.QuantLib::LPP3HestonExpansion", ptr %this1, i32 0, i32 3
  %4 = load double, ptr %e2kt5, align 8, !tbaa !92
  %ekt6 = getelementptr inbounds nuw %"class.QuantLib::LPP3HestonExpansion", ptr %this1, i32 0, i32 2
  %5 = load double, ptr %ekt6, align 8, !tbaa !90
  %mul7 = fmul double %4, %5
  %e3kt = getelementptr inbounds nuw %"class.QuantLib::LPP3HestonExpansion", ptr %this1, i32 0, i32 4
  store double %mul7, ptr %e3kt, align 8, !tbaa !93
  %e2kt8 = getelementptr inbounds nuw %"class.QuantLib::LPP3HestonExpansion", ptr %this1, i32 0, i32 3
  %6 = load double, ptr %e2kt8, align 8, !tbaa !92
  %e2kt9 = getelementptr inbounds nuw %"class.QuantLib::LPP3HestonExpansion", ptr %this1, i32 0, i32 3
  %7 = load double, ptr %e2kt9, align 8, !tbaa !92
  %mul10 = fmul double %6, %7
  %e4kt = getelementptr inbounds nuw %"class.QuantLib::LPP3HestonExpansion", ptr %this1, i32 0, i32 5
  store double %mul10, ptr %e4kt, align 8, !tbaa !94
  %8 = load double, ptr %term.addr, align 8, !tbaa !53
  %9 = load double, ptr %kappa.addr, align 8, !tbaa !53
  %10 = load double, ptr %theta.addr, align 8, !tbaa !53
  %11 = load double, ptr %sigma.addr, align 8, !tbaa !53
  %12 = load double, ptr %v0.addr, align 8, !tbaa !53
  %13 = load double, ptr %rho.addr, align 8, !tbaa !53
  %call11 = invoke noundef double @_ZNK8QuantLib19LPP3HestonExpansion2z0Edddddd(ptr noundef nonnull align 8 dereferenceable(72) %this1, double noundef %8, double noundef %9, double noundef %10, double noundef %11, double noundef %12, double noundef %13)
          to label %invoke.cont unwind label %lpad

invoke.cont:                                      ; preds = %entry
  %coeffs = getelementptr inbounds nuw %"class.QuantLib::LPP3HestonExpansion", ptr %this1, i32 0, i32 1
  %arrayidx = getelementptr inbounds [4 x double], ptr %coeffs, i64 0, i64 0
  store double %call11, ptr %arrayidx, align 8, !tbaa !53
  %14 = load double, ptr %term.addr, align 8, !tbaa !53
  %15 = load double, ptr %kappa.addr, align 8, !tbaa !53
  %16 = load double, ptr %theta.addr, align 8, !tbaa !53
  %17 = load double, ptr %sigma.addr, align 8, !tbaa !53
  %18 = load double, ptr %v0.addr, align 8, !tbaa !53
  %19 = load double, ptr %rho.addr, align 8, !tbaa !53
  %call13 = invoke noundef double @_ZNK8QuantLib19LPP3HestonExpansion2z1Edddddd(ptr noundef nonnull align 8 dereferenceable(72) %this1, double noundef %14, double noundef %15, double noundef %16, double noundef %17, double noundef %18, double noundef %19)
          to label %invoke.cont12 unwind label %lpad

invoke.cont12:                                    ; preds = %invoke.cont
  %coeffs14 = getelementptr inbounds nuw %"class.QuantLib::LPP3HestonExpansion", ptr %this1, i32 0, i32 1
  %arrayidx15 = getelementptr inbounds [4 x double], ptr %coeffs14, i64 0, i64 1
  store double %call13, ptr %arrayidx15, align 8, !tbaa !53
  %20 = load double, ptr %term.addr, align 8, !tbaa !53
  %21 = load double, ptr %kappa.addr, align 8, !tbaa !53
  %22 = load double, ptr %theta.addr, align 8, !tbaa !53
  %23 = load double, ptr %sigma.addr, align 8, !tbaa !53
  %24 = load double, ptr %v0.addr, align 8, !tbaa !53
  %25 = load double, ptr %rho.addr, align 8, !tbaa !53
  %call17 = invoke noundef double @_ZNK8QuantLib19LPP3HestonExpansion2z2Edddddd(ptr noundef nonnull align 8 dereferenceable(72) %this1, double noundef %20, double noundef %21, double noundef %22, double noundef %23, double noundef %24, double noundef %25)
          to label %invoke.cont16 unwind label %lpad

invoke.cont16:                                    ; preds = %invoke.cont12
  %coeffs18 = getelementptr inbounds nuw %"class.QuantLib::LPP3HestonExpansion", ptr %this1, i32 0, i32 1
  %arrayidx19 = getelementptr inbounds [4 x double], ptr %coeffs18, i64 0, i64 2
  store double %call17, ptr %arrayidx19, align 8, !tbaa !53
  %26 = load double, ptr %term.addr, align 8, !tbaa !53
  %27 = load double, ptr %kappa.addr, align 8, !tbaa !53
  %28 = load double, ptr %theta.addr, align 8, !tbaa !53
  %29 = load double, ptr %sigma.addr, align 8, !tbaa !53
  %30 = load double, ptr %v0.addr, align 8, !tbaa !53
  %31 = load double, ptr %rho.addr, align 8, !tbaa !53
  %call21 = invoke noundef double @_ZNK8QuantLib19LPP3HestonExpansion2z3Edddddd(ptr noundef nonnull align 8 dereferenceable(72) %this1, double noundef %26, double noundef %27, double noundef %28, double noundef %29, double noundef %30, double noundef %31)
          to label %invoke.cont20 unwind label %lpad

invoke.cont20:                                    ; preds = %invoke.cont16
  %coeffs22 = getelementptr inbounds nuw %"class.QuantLib::LPP3HestonExpansion", ptr %this1, i32 0, i32 1
  %arrayidx23 = getelementptr inbounds [4 x double], ptr %coeffs22, i64 0, i64 3
  store double %call21, ptr %arrayidx23, align 8, !tbaa !53
  ret void

lpad:                                             ; preds = %invoke.cont16, %invoke.cont12, %invoke.cont, %entry
  %32 = landingpad { ptr, i32 }
          cleanup
  %33 = extractvalue { ptr, i32 } %32, 0
  store ptr %33, ptr %exn.slot, align 8
  %34 = extractvalue { ptr, i32 } %32, 1
  store i32 %34, ptr %ehselector.slot, align 4
  call void @_ZN8QuantLib15HestonExpansionD2Ev(ptr noundef nonnull align 8 dereferenceable(8) %this1) #13
  br label %eh.resume

eh.resume:                                        ; preds = %lpad
  %exn = load ptr, ptr %exn.slot, align 8
  %sel = load i32, ptr %ehselector.slot, align 4
  %lpad.val = insertvalue { ptr, i32 } poison, ptr %exn, 0
  %lpad.val24 = insertvalue { ptr, i32 } %lpad.val, i32 %sel, 1
  resume { ptr, i32 } %lpad.val24
}