; Function Attrs: mustprogress nofree nounwind willreturn memory(write, argmem: readwrite) uwtable
define void @_ZN8QuantLib19LPP3HestonExpansionC2Edddddd(ptr nocapture noundef nonnull align 8 dereferenceable(72) %this, double noundef %kappa, double noundef %theta, double noundef %sigma, double noundef %v0, double noundef %rho, double noundef %term) unnamed_addr #11 align 2 personality ptr @__gxx_personality_v0 {
entry:
  store ptr getelementptr inbounds inrange(-16, 24) (i8, ptr @_ZTVN8QuantLib19LPP3HestonExpansionE, i64 16), ptr %this, align 8, !tbaa !35
  %mul = fmul double %kappa, %term
  %call = tail call double @exp(double noundef %mul) #29, !tbaa !112
  %ekt = getelementptr inbounds nuw i8, ptr %this, i64 40
  store double %call, ptr %ekt, align 8, !tbaa !126
  %mul4 = fmul double %call, %call
  %e2kt = getelementptr inbounds nuw i8, ptr %this, i64 48
  store double %mul4, ptr %e2kt, align 8, !tbaa !128
  %mul7 = fmul double %call, %mul4
  %e3kt = getelementptr inbounds nuw i8, ptr %this, i64 56
  store double %mul7, ptr %e3kt, align 8, !tbaa !129
  %mul10 = fmul double %mul4, %mul4
  %e4kt = getelementptr inbounds nuw i8, ptr %this, i64 64
  store double %mul10, ptr %e4kt, align 8, !tbaa !130
  %call11 = tail call noundef double @_ZNK8QuantLib19LPP3HestonExpansion2z0Edddddd(ptr noundef nonnull align 8 dereferenceable(72) %this, double noundef %term, double noundef %kappa, double noundef %theta, double noundef %sigma, double noundef %v0, double noundef %rho)
  %coeffs = getelementptr inbounds nuw i8, ptr %this, i64 8
  store double %call11, ptr %coeffs, align 8, !tbaa !114
  %call13 = tail call noundef double @_ZNK8QuantLib19LPP3HestonExpansion2z1Edddddd(ptr noundef nonnull align 8 dereferenceable(72) %this, double noundef %term, double noundef %kappa, double noundef %theta, double noundef %sigma, double noundef %v0, double noundef %rho)
  %arrayidx15 = getelementptr inbounds i8, ptr %this, i64 16
  store double %call13, ptr %arrayidx15, align 8, !tbaa !114
  %call17 = tail call noundef double @_ZNK8QuantLib19LPP3HestonExpansion2z2Edddddd(ptr noundef nonnull align 8 dereferenceable(72) %this, double noundef %term, double noundef %kappa, double noundef %theta, double noundef %sigma, double noundef %v0, double noundef %rho)
  %arrayidx19 = getelementptr inbounds i8, ptr %this, i64 24
  store double %call17, ptr %arrayidx19, align 8, !tbaa !114
  %call21 = tail call noundef double @_ZNK8QuantLib19LPP3HestonExpansion2z3Edddddd(ptr noundef nonnull align 8 dereferenceable(72) %this, double noundef %term, double noundef %kappa, double noundef %theta, double noundef %sigma, double noundef %v0, double noundef %rho)
  %arrayidx23 = getelementptr inbounds i8, ptr %this, i64 32
  store double %call21, ptr %arrayidx23, align 8, !tbaa !114
  ret void
}